; Function Attrs: mustprogress nofree norecurse nosync nounwind null_pointer_is_valid sspstrong willreturn memory(argmem: read) uwtable
define internal range(i32 0, 2) i32 @stream_compare_func(ptr noundef readonly captures(none) %0, ptr noundef readonly captures(none) %1) #5 {
  %3 = getelementptr inbounds nuw i8, ptr %0, i64 8
  %4 = load i32, ptr %3, align 8
  %5 = getelementptr inbounds nuw i8, ptr %1, i64 8
  %6 = load i32, ptr %5, align 8
  %.not = icmp eq i32 %4, %6
  br i1 %.not, label %7, label %12

7:                                                ; preds = %2
  %8 = load ptr, ptr %0, align 8
  %9 = load ptr, ptr %1, align 8
  %10 = icmp eq ptr %8, %9
  %11 = zext i1 %10 to i32
  br label %12

12:                                               ; preds = %2, %7
  %.0 = phi i32 [ %11, %7 ], [ 0, %2 ]
  ret i32 %.0
}